target datalayout = "e-m:e-p270:32:32-p271:32:32-p272:64:64-i64:64-i128:128-f80:128-n8:16:32:64-S128"
target triple = "x86_64-pc-linux-gnu"

%struct.__loadu_ps = type { <4 x float> }
%struct.__storeu_ps = type { <4 x float> }
%struct.stbir__contributors = type { i32, i32 }
%struct.__mm_storel_epi64_struct = type { i64 }
%struct.__mm_store_ss_struct = type { float }

; Function Attrs: alwaysinline nounwind uwtable
define available_externally void @_mm_store_ss(ptr noundef %0, <4 x float> noundef %1) #2 {
  %3 = alloca ptr, align 8
  %4 = alloca <4 x float>, align 16
  store ptr %0, ptr %3, align 8, !tbaa !21
  store <4 x float> %1, ptr %4, align 16, !tbaa !12
  %5 = load <4 x float>, ptr %4, align 16, !tbaa !12
  %6 = extractelement <4 x float> %5, i32 0
  %7 = load ptr, ptr %3, align 8, !tbaa !21
  %8 = getelementptr inbounds nuw %struct.__mm_store_ss_struct, ptr %7, i32 0, i32 0
  store float %6, ptr %8, align 1, !tbaa !12
  ret void
}

; Function Attrs: alwaysinline nounwind uwtable
define available_externally void @_mm_storel_epi64(ptr noundef %0, <2 x i64> noundef %1) #2 {
  %3 = alloca ptr, align 8
  %4 = alloca <2 x i64>, align 16
  store ptr %0, ptr %3, align 8, !tbaa !3
  store <2 x i64> %1, ptr %4, align 16, !tbaa !12
  %5 = load <2 x i64>, ptr %4, align 16, !tbaa !12
  %6 = extractelement <2 x i64> %5, i32 0
  %7 = load ptr, ptr %3, align 8, !tbaa !3
  %8 = getelementptr inbounds nuw %struct.__mm_storel_epi64_struct, ptr %7, i32 0, i32 0
  store i64 %6, ptr %8, align 1, !tbaa !12
  ret void
}

; Function Attrs: alwaysinline nounwind uwtable
define available_externally void @_mm_storeu_ps(ptr noundef %0, <4 x float> noundef %1) #2 {
  %3 = alloca ptr, align 8
  %4 = alloca <4 x float>, align 16
  store ptr %0, ptr %3, align 8, !tbaa !21
  store <4 x float> %1, ptr %4, align 16, !tbaa !12
  %5 = load <4 x float>, ptr %4, align 16, !tbaa !12
  %6 = load ptr, ptr %3, align 8, !tbaa !21
  %7 = getelementptr inbounds nuw %struct.__storeu_ps, ptr %6, i32 0, i32 0
  store <4 x float> %5, ptr %7, align 1, !tbaa !12
  ret void
}

; Function Attrs: alwaysinline nounwind uwtable
define available_externally <4 x float> @_mm_add_ps(<4 x float> noundef %0, <4 x float> noundef %1) #2 {
  %3 = alloca <4 x float>, align 16
  %4 = alloca <4 x float>, align 16
  store <4 x float> %0, ptr %3, align 16, !tbaa !12
  store <4 x float> %1, ptr %4, align 16, !tbaa !12
  %5 = load <4 x float>, ptr %3, align 16, !tbaa !12
  %6 = load <4 x float>, ptr %4, align 16, !tbaa !12
  %7 = fadd <4 x float> %5, %6
  ret <4 x float> %7
}

; Function Attrs: alwaysinline nounwind uwtable
define available_externally <4 x float> @_mm_mul_ps(<4 x float> noundef %0, <4 x float> noundef %1) #2 {
  %3 = alloca <4 x float>, align 16
  %4 = alloca <4 x float>, align 16
  store <4 x float> %0, ptr %3, align 16, !tbaa !12
  store <4 x float> %1, ptr %4, align 16, !tbaa !12
  %5 = load <4 x float>, ptr %3, align 16, !tbaa !12
  %6 = load <4 x float>, ptr %4, align 16, !tbaa !12
  %7 = fmul <4 x float> %5, %6
  ret <4 x float> %7
}

; Function Attrs: alwaysinline nounwind uwtable
define available_externally <4 x float> @_mm_castsi128_ps(<2 x i64> noundef %0) #2 {
  %2 = alloca <2 x i64>, align 16
  store <2 x i64> %0, ptr %2, align 16, !tbaa !12
  %3 = load <2 x i64>, ptr %2, align 16, !tbaa !12
  %4 = bitcast <2 x i64> %3 to <4 x float>
  ret <4 x float> %4
}

; Function Attrs: alwaysinline nounwind uwtable
define available_externally <2 x i64> @_mm_castps_si128(<4 x float> noundef %0) #2 {
  %2 = alloca <4 x float>, align 16
  store <4 x float> %0, ptr %2, align 16, !tbaa !12
  %3 = load <4 x float>, ptr %2, align 16, !tbaa !12
  %4 = bitcast <4 x float> %3 to <2 x i64>
  ret <2 x i64> %4
}

; Function Attrs: alwaysinline nounwind uwtable
define available_externally <4 x float> @_mm_loadu_ps(ptr noundef %0) #2 {
  %2 = alloca ptr, align 8
  store ptr %0, ptr %2, align 8, !tbaa !21
  %3 = load ptr, ptr %2, align 8, !tbaa !21
  %4 = getelementptr inbounds nuw %struct.__loadu_ps, ptr %3, i32 0, i32 0
  %5 = load <4 x float>, ptr %4, align 1, !tbaa !12
  ret <4 x float> %5
}

; Function Attrs: nounwind uwtable
define void @stbir__horizontal_gather_3_channels_with_n_coeffs_mod0(ptr noundef %0, i32 noundef %1, ptr noundef %2, ptr noundef %3, ptr noundef %4, i32 noundef %5) #0 {
  %7 = alloca ptr, align 8
  %8 = alloca i32, align 4
  %9 = alloca ptr, align 8
  %10 = alloca ptr, align 8
  %11 = alloca ptr, align 8
  %12 = alloca i32, align 4
  %13 = alloca ptr, align 8
  %14 = alloca ptr, align 8
  %15 = alloca ptr, align 8
  %16 = alloca i32, align 4
  %17 = alloca ptr, align 8
  %18 = alloca <4 x float>, align 16
  %19 = alloca <4 x float>, align 16
  %20 = alloca <4 x float>, align 16
  %21 = alloca <4 x float>, align 16
  %22 = alloca <4 x float>, align 16
  %23 = alloca i32, align 4
  store ptr %0, ptr %7, align 8, !tbaa !21
  store i32 %1, ptr %8, align 4, !tbaa !26
  store ptr %2, ptr %9, align 8, !tbaa !21
  store ptr %3, ptr %10, align 8, !tbaa !3
  store ptr %4, ptr %11, align 8, !tbaa !21
  store i32 %5, ptr %12, align 4, !tbaa !26
  call void @llvm.lifetime.start.p0(i64 8, ptr %13) #12
  %24 = load ptr, ptr %7, align 8, !tbaa !21
  %25 = load i32, ptr %8, align 4, !tbaa !26
  %26 = mul i32 %25, 3
  %27 = zext i32 %26 to i64
  %28 = getelementptr inbounds nuw float, ptr %24, i64 %27
  store ptr %28, ptr %13, align 8, !tbaa !21
  call void @llvm.lifetime.start.p0(i64 8, ptr %14) #12
  %29 = load ptr, ptr %7, align 8, !tbaa !21
  store ptr %29, ptr %14, align 8, !tbaa !21
  br label %30

30:                                               ; preds = %204, %6
  call void @llvm.lifetime.start.p0(i64 8, ptr %15) #12
  %31 = load ptr, ptr %9, align 8, !tbaa !21
  %32 = load ptr, ptr %10, align 8, !tbaa !3
  %33 = getelementptr inbounds nuw %struct.stbir__contributors, ptr %32, i32 0, i32 0
  %34 = load i32, ptr %33, align 4, !tbaa !41
  %35 = mul nsw i32 %34, 3
  %36 = sext i32 %35 to i64
  %37 = getelementptr inbounds float, ptr %31, i64 %36
  store ptr %37, ptr %15, align 8, !tbaa !21
  call void @llvm.lifetime.start.p0(i64 4, ptr %16) #12
  %38 = load ptr, ptr %10, align 8, !tbaa !3
  %39 = getelementptr inbounds nuw %struct.stbir__contributors, ptr %38, i32 0, i32 1
  %40 = load i32, ptr %39, align 4, !tbaa !44
  %41 = load ptr, ptr %10, align 8, !tbaa !3
  %42 = getelementptr inbounds nuw %struct.stbir__contributors, ptr %41, i32 0, i32 0
  %43 = load i32, ptr %42, align 4, !tbaa !41
  %44 = sub nsw i32 %40, %43
  %45 = add nsw i32 %44, 1
  %46 = sub nsw i32 %45, 4
  %47 = add nsw i32 %46, 3
  %48 = ashr i32 %47, 2
  store i32 %48, ptr %16, align 4, !tbaa !26
  call void @llvm.lifetime.start.p0(i64 8, ptr %17) #12
  %49 = load ptr, ptr %11, align 8, !tbaa !21
  store ptr %49, ptr %17, align 8, !tbaa !21
  call void @llvm.lifetime.start.p0(i64 16, ptr %18) #12
  call void @llvm.lifetime.start.p0(i64 16, ptr %19) #12
  call void @llvm.lifetime.start.p0(i64 16, ptr %20) #12
  call void @llvm.lifetime.start.p0(i64 16, ptr %21) #12
  call void @llvm.lifetime.start.p0(i64 16, ptr %22) #12
  %50 = load ptr, ptr %15, align 8, !tbaa !21
  call void asm sideeffect "", "r,~{dirflag},~{fpsr},~{flags}"(ptr %50) #12, !srcloc !667
  %51 = load ptr, ptr %17, align 8, !tbaa !21
  %52 = call <4 x float> @_mm_loadu_ps(ptr noundef %51)
  store <4 x float> %52, ptr %22, align 16, !tbaa !12
  %53 = load <4 x float>, ptr %22, align 16, !tbaa !12
  %54 = call <2 x i64> @_mm_castps_si128(<4 x float> noundef %53)
  %55 = bitcast <2 x i64> %54 to <4 x i32>
  %56 = shufflevector <4 x i32> %55, <4 x i32> poison, <4 x i32> <i32 0, i32 0, i32 0, i32 1>
  %57 = bitcast <4 x i32> %56 to <2 x i64>
  %58 = call <4 x float> @_mm_castsi128_ps(<2 x i64> noundef %57)
  store <4 x float> %58, ptr %21, align 16, !tbaa !12
  %59 = load <4 x float>, ptr %21, align 16, !tbaa !12
  %60 = load ptr, ptr %15, align 8, !tbaa !21
  %61 = call <4 x float> @_mm_loadu_ps(ptr noundef %60)
  %62 = call <4 x float> @_mm_mul_ps(<4 x float> noundef %59, <4 x float> noundef %61)
  store <4 x float> %62, ptr %18, align 16, !tbaa !12
  %63 = load <4 x float>, ptr %22, align 16, !tbaa !12
  %64 = call <2 x i64> @_mm_castps_si128(<4 x float> noundef %63)
  %65 = bitcast <2 x i64> %64 to <4 x i32>
  %66 = shufflevector <4 x i32> %65, <4 x i32> poison, <4 x i32> <i32 1, i32 1, i32 2, i32 2>
  %67 = bitcast <4 x i32> %66 to <2 x i64>
  %68 = call <4 x float> @_mm_castsi128_ps(<2 x i64> noundef %67)
  store <4 x float> %68, ptr %21, align 16, !tbaa !12
  %69 = load <4 x float>, ptr %21, align 16, !tbaa !12
  %70 = load ptr, ptr %15, align 8, !tbaa !21
  %71 = getelementptr inbounds float, ptr %70, i64 4
  %72 = call <4 x float> @_mm_loadu_ps(ptr noundef %71)
  %73 = call <4 x float> @_mm_mul_ps(<4 x float> noundef %69, <4 x float> noundef %72)
  store <4 x float> %73, ptr %19, align 16, !tbaa !12
  %74 = load <4 x float>, ptr %22, align 16, !tbaa !12
  %75 = call <2 x i64> @_mm_castps_si128(<4 x float> noundef %74)
  %76 = bitcast <2 x i64> %75 to <4 x i32>
  %77 = shufflevector <4 x i32> %76, <4 x i32> poison, <4 x i32> <i32 2, i32 3, i32 3, i32 3>
  %78 = bitcast <4 x i32> %77 to <2 x i64>
  %79 = call <4 x float> @_mm_castsi128_ps(<2 x i64> noundef %78)
  store <4 x float> %79, ptr %21, align 16, !tbaa !12
  %80 = load <4 x float>, ptr %21, align 16, !tbaa !12
  %81 = load ptr, ptr %15, align 8, !tbaa !21
  %82 = getelementptr inbounds float, ptr %81, i64 8
  %83 = call <4 x float> @_mm_loadu_ps(ptr noundef %82)
  %84 = call <4 x float> @_mm_mul_ps(<4 x float> noundef %80, <4 x float> noundef %83)
  store <4 x float> %84, ptr %20, align 16, !tbaa !12
  br label %85

85:                                               ; preds = %137, %30
  %86 = load ptr, ptr %17, align 8, !tbaa !21
  %87 = getelementptr inbounds float, ptr %86, i64 4
  store ptr %87, ptr %17, align 8, !tbaa !21
  %88 = load ptr, ptr %15, align 8, !tbaa !21
  %89 = getelementptr inbounds float, ptr %88, i64 12
  store ptr %89, ptr %15, align 8, !tbaa !21
  %90 = load ptr, ptr %15, align 8, !tbaa !21
  call void asm sideeffect "", "r,~{dirflag},~{fpsr},~{flags}"(ptr %90) #12, !srcloc !668
  %91 = load ptr, ptr %17, align 8, !tbaa !21
  %92 = getelementptr inbounds float, ptr %91, i64 0
  %93 = call <4 x float> @_mm_loadu_ps(ptr noundef %92)
  store <4 x float> %93, ptr %22, align 16, !tbaa !12
  %94 = load <4 x float>, ptr %22, align 16, !tbaa !12
  %95 = call <2 x i64> @_mm_castps_si128(<4 x float> noundef %94)
  %96 = bitcast <2 x i64> %95 to <4 x i32>
  %97 = shufflevector <4 x i32> %96, <4 x i32> poison, <4 x i32> <i32 0, i32 0, i32 0, i32 1>
  %98 = bitcast <4 x i32> %97 to <2 x i64>
  %99 = call <4 x float> @_mm_castsi128_ps(<2 x i64> noundef %98)
  store <4 x float> %99, ptr %21, align 16, !tbaa !12
  %100 = load <4 x float>, ptr %18, align 16, !tbaa !12
  %101 = load <4 x float>, ptr %21, align 16, !tbaa !12
  %102 = load ptr, ptr %15, align 8, !tbaa !21
  %103 = getelementptr inbounds float, ptr %102, i64 0
  %104 = call <4 x float> @_mm_loadu_ps(ptr noundef %103)
  %105 = call <4 x float> @_mm_mul_ps(<4 x float> noundef %101, <4 x float> noundef %104)
  %106 = call <4 x float> @_mm_add_ps(<4 x float> noundef %100, <4 x float> noundef %105)
  store <4 x float> %106, ptr %18, align 16, !tbaa !12
  %107 = load <4 x float>, ptr %22, align 16, !tbaa !12
  %108 = call <2 x i64> @_mm_castps_si128(<4 x float> noundef %107)
  %109 = bitcast <2 x i64> %108 to <4 x i32>
  %110 = shufflevector <4 x i32> %109, <4 x i32> poison, <4 x i32> <i32 1, i32 1, i32 2, i32 2>
  %111 = bitcast <4 x i32> %110 to <2 x i64>
  %112 = call <4 x float> @_mm_castsi128_ps(<2 x i64> noundef %111)
  store <4 x float> %112, ptr %21, align 16, !tbaa !12
  %113 = load <4 x float>, ptr %19, align 16, !tbaa !12
  %114 = load <4 x float>, ptr %21, align 16, !tbaa !12
  %115 = load ptr, ptr %15, align 8, !tbaa !21
  %116 = getelementptr inbounds float, ptr %115, i64 0
  %117 = getelementptr inbounds float, ptr %116, i64 4
  %118 = call <4 x float> @_mm_loadu_ps(ptr noundef %117)
  %119 = call <4 x float> @_mm_mul_ps(<4 x float> noundef %114, <4 x float> noundef %118)
  %120 = call <4 x float> @_mm_add_ps(<4 x float> noundef %113, <4 x float> noundef %119)
  store <4 x float> %120, ptr %19, align 16, !tbaa !12
  %121 = load <4 x float>, ptr %22, align 16, !tbaa !12
  %122 = call <2 x i64> @_mm_castps_si128(<4 x float> noundef %121)
  %123 = bitcast <2 x i64> %122 to <4 x i32>
  %124 = shufflevector <4 x i32> %123, <4 x i32> poison, <4 x i32> <i32 2, i32 3, i32 3, i32 3>
  %125 = bitcast <4 x i32> %124 to <2 x i64>
  %126 = call <4 x float> @_mm_castsi128_ps(<2 x i64> noundef %125)
  store <4 x float> %126, ptr %21, align 16, !tbaa !12
  %127 = load <4 x float>, ptr %20, align 16, !tbaa !12
  %128 = load <4 x float>, ptr %21, align 16, !tbaa !12
  %129 = load ptr, ptr %15, align 8, !tbaa !21
  %130 = getelementptr inbounds float, ptr %129, i64 0
  %131 = getelementptr inbounds float, ptr %130, i64 8
  %132 = call <4 x float> @_mm_loadu_ps(ptr noundef %131)
  %133 = call <4 x float> @_mm_mul_ps(<4 x float> noundef %128, <4 x float> noundef %132)
  %134 = call <4 x float> @_mm_add_ps(<4 x float> noundef %127, <4 x float> noundef %133)
  store <4 x float> %134, ptr %20, align 16, !tbaa !12
  %135 = load i32, ptr %16, align 4, !tbaa !26
  %136 = add nsw i32 %135, -1
  store i32 %136, ptr %16, align 4, !tbaa !26
  br label %137

137:                                              ; preds = %85
  %138 = load i32, ptr %16, align 4, !tbaa !26
  %139 = icmp sgt i32 %138, 0
  br i1 %139, label %85, label %140, !llvm.loop !669

140:                                              ; preds = %137
  %141 = load <4 x float>, ptr %19, align 16, !tbaa !12
  %142 = load <4 x float>, ptr %18, align 16, !tbaa !12
  %143 = shufflevector <4 x float> %141, <4 x float> %142, <4 x i32> <i32 0, i32 1, i32 6, i32 7>
  %144 = call <2 x i64> @_mm_castps_si128(<4 x float> noundef %143)
  %145 = bitcast <2 x i64> %144 to <4 x i32>
  %146 = shufflevector <4 x i32> %145, <4 x i32> poison, <4 x i32> <i32 3, i32 0, i32 1, i32 2>
  %147 = bitcast <4 x i32> %146 to <2 x i64>
  %148 = call <4 x float> @_mm_castsi128_ps(<2 x i64> noundef %147)
  store <4 x float> %148, ptr %21, align 16, !tbaa !12
  %149 = load <4 x float>, ptr %20, align 16, !tbaa !12
  %150 = load <4 x float>, ptr %19, align 16, !tbaa !12
  %151 = shufflevector <4 x float> %149, <4 x float> %150, <4 x i32> <i32 0, i32 1, i32 6, i32 7>
  %152 = call <2 x i64> @_mm_castps_si128(<4 x float> noundef %151)
  %153 = bitcast <2 x i64> %152 to <4 x i32>
  %154 = shufflevector <4 x i32> %153, <4 x i32> poison, <4 x i32> <i32 2, i32 3, i32 0, i32 1>
  %155 = bitcast <4 x i32> %154 to <2 x i64>
  %156 = call <4 x float> @_mm_castsi128_ps(<2 x i64> noundef %155)
  store <4 x float> %156, ptr %22, align 16, !tbaa !12
  %157 = load <4 x float>, ptr %20, align 16, !tbaa !12
  %158 = call <2 x i64> @_mm_castps_si128(<4 x float> noundef %157)
  %159 = bitcast <2 x i64> %158 to <4 x i32>
  %160 = shufflevector <4 x i32> %159, <4 x i32> poison, <4 x i32> <i32 1, i32 2, i32 3, i32 0>
  %161 = bitcast <4 x i32> %160 to <2 x i64>
  %162 = call <4 x float> @_mm_castsi128_ps(<2 x i64> noundef %161)
  store <4 x float> %162, ptr %20, align 16, !tbaa !12
  %163 = load <4 x float>, ptr %18, align 16, !tbaa !12
  %164 = load <4 x float>, ptr %22, align 16, !tbaa !12
  %165 = call <4 x float> @_mm_add_ps(<4 x float> noundef %163, <4 x float> noundef %164)
  store <4 x float> %165, ptr %18, align 16, !tbaa !12
  %166 = load <4 x float>, ptr %21, align 16, !tbaa !12
  %167 = load <4 x float>, ptr %20, align 16, !tbaa !12
  %168 = call <4 x float> @_mm_add_ps(<4 x float> noundef %166, <4 x float> noundef %167)
  store <4 x float> %168, ptr %21, align 16, !tbaa !12
  %169 = load <4 x float>, ptr %18, align 16, !tbaa !12
  %170 = load <4 x float>, ptr %21, align 16, !tbaa !12
  %171 = call <4 x float> @_mm_add_ps(<4 x float> noundef %169, <4 x float> noundef %170)
  store <4 x float> %171, ptr %18, align 16, !tbaa !12
  %172 = load i32, ptr %12, align 4, !tbaa !26
  %173 = load ptr, ptr %11, align 8, !tbaa !21
  %174 = sext i32 %172 to i64
  %175 = getelementptr inbounds float, ptr %173, i64 %174
  store ptr %175, ptr %11, align 8, !tbaa !21
  %176 = load ptr, ptr %10, align 8, !tbaa !3
  %177 = getelementptr inbounds nuw %struct.stbir__contributors, ptr %176, i32 1
  store ptr %177, ptr %10, align 8, !tbaa !3
  %178 = load ptr, ptr %14, align 8, !tbaa !21
  %179 = getelementptr inbounds float, ptr %178, i64 3
  store ptr %179, ptr %14, align 8, !tbaa !21
  %180 = load ptr, ptr %14, align 8, !tbaa !21
  %181 = load ptr, ptr %13, align 8, !tbaa !21
  %182 = icmp ult ptr %180, %181
  br i1 %182, label %183, label %187

183:                                              ; preds = %140
  %184 = load ptr, ptr %14, align 8, !tbaa !21
  %185 = getelementptr inbounds float, ptr %184, i64 -3
  %186 = load <4 x float>, ptr %18, align 16, !tbaa !12
  call void @_mm_storeu_ps(ptr noundef %185, <4 x float> noundef %186)
  store i32 3, ptr %23, align 4
  br label %202

187:                                              ; preds = %140
  %188 = load <4 x float>, ptr %18, align 16, !tbaa !12
  %189 = call <2 x i64> @_mm_castps_si128(<4 x float> noundef %188)
  %190 = bitcast <2 x i64> %189 to <4 x i32>
  %191 = shufflevector <4 x i32> %190, <4 x i32> poison, <4 x i32> <i32 2, i32 3, i32 0, i32 1>
  %192 = bitcast <4 x i32> %191 to <2 x i64>
  %193 = call <4 x float> @_mm_castsi128_ps(<2 x i64> noundef %192)
  store <4 x float> %193, ptr %19, align 16, !tbaa !12
  %194 = load ptr, ptr %14, align 8, !tbaa !21
  %195 = getelementptr inbounds float, ptr %194, i64 -3
  %196 = load <4 x float>, ptr %18, align 16, !tbaa !12
  %197 = call <2 x i64> @_mm_castps_si128(<4 x float> noundef %196)
  call void @_mm_storel_epi64(ptr noundef %195, <2 x i64> noundef %197)
  %198 = load ptr, ptr %14, align 8, !tbaa !21
  %199 = getelementptr inbounds float, ptr %198, i64 2
  %200 = getelementptr inbounds float, ptr %199, i64 -3
  %201 = load <4 x float>, ptr %19, align 16, !tbaa !12
  call void @_mm_store_ss(ptr noundef %200, <4 x float> noundef %201)
  store i32 2, ptr %23, align 4
  br label %202

202:                                              ; preds = %187, %183
  call void @llvm.lifetime.end.p0(i64 16, ptr %22) #12
  call void @llvm.lifetime.end.p0(i64 16, ptr %21) #12
  call void @llvm.lifetime.end.p0(i64 16, ptr %20) #12
  call void @llvm.lifetime.end.p0(i64 16, ptr %19) #12
  call void @llvm.lifetime.end.p0(i64 16, ptr %18) #12
  call void @llvm.lifetime.end.p0(i64 8, ptr %17) #12
  call void @llvm.lifetime.end.p0(i64 4, ptr %16) #12
  call void @llvm.lifetime.end.p0(i64 8, ptr %15) #12
  %203 = load i32, ptr %23, align 4
  switch i32 %203, label %209 [
    i32 3, label %204
    i32 2, label %208
  ]

204:                                              ; preds = %202
  %205 = load ptr, ptr %14, align 8, !tbaa !21
  %206 = load ptr, ptr %13, align 8, !tbaa !21
  %207 = icmp ult ptr %205, %206
  br i1 %207, label %30, label %208, !llvm.loop !670

208:                                              ; preds = %204, %202
  call void @llvm.lifetime.end.p0(i64 8, ptr %14) #12
  call void @llvm.lifetime.end.p0(i64 8, ptr %13) #12
  ret void

209:                                              ; preds = %202
  unreachable
}