; Function Attrs: nounwind uwtable
define void @stbir__horizontal_gather_3_channels_with_n_coeffs_mod0(ptr noundef writeonly captures(address) %0, i32 noundef %1, ptr noundef %2, ptr noundef readonly captures(none) %3, ptr noundef readonly captures(none) %4, i32 noundef %5) #0 {
  %7 = mul i32 %1, 3
  %8 = zext i32 %7 to i64
  %9 = getelementptr inbounds nuw float, ptr %0, i64 %8
  %10 = sext i32 %5 to i64
  br label %11

11:                                               ; preds = %65, %6
  %.071 = phi ptr [ %4, %6 ], [ %67, %65 ]
  %.070 = phi ptr [ %3, %6 ], [ %66, %65 ]
  %.069 = phi ptr [ %0, %6 ], [ %59, %65 ]
  %12 = load i32, ptr %.070, align 4, !tbaa !34
  %13 = mul nsw i32 %12, 3
  %14 = sext i32 %13 to i64
  %15 = getelementptr inbounds float, ptr %2, i64 %14
  %16 = getelementptr inbounds nuw i8, ptr %.070, i64 4
  %17 = load i32, ptr %16, align 4, !tbaa !37
  %18 = sub nsw i32 %17, %12
  %19 = ashr i32 %18, 2
  tail call void asm sideeffect "", "r,~{dirflag},~{fpsr},~{flags}"(ptr %15) #24, !srcloc !582
  %20 = load <4 x float>, ptr %.071, align 1, !tbaa !4
  %21 = shufflevector <4 x float> %20, <4 x float> poison, <4 x i32> <i32 0, i32 0, i32 0, i32 1>
  %22 = load <4 x float>, ptr %15, align 1, !tbaa !4
  %23 = fmul <4 x float> %22, %21
  %24 = shufflevector <4 x float> %20, <4 x float> poison, <4 x i32> <i32 1, i32 1, i32 2, i32 2>
  %25 = getelementptr inbounds nuw i8, ptr %15, i64 16
  %26 = load <4 x float>, ptr %25, align 1, !tbaa !4
  %27 = fmul <4 x float> %24, %26
  %28 = shufflevector <4 x float> %20, <4 x float> poison, <4 x i32> <i32 2, i32 3, i32 3, i32 3>
  %29 = getelementptr inbounds nuw i8, ptr %15, i64 32
  %30 = load <4 x float>, ptr %29, align 1, !tbaa !4
  %31 = fmul <4 x float> %28, %30
  br label %32

32:                                               ; preds = %32, %11
  %.068 = phi ptr [ %15, %11 ], [ %34, %32 ]
  %.067 = phi i32 [ %19, %11 ], [ %50, %32 ]
  %.066 = phi ptr [ %.071, %11 ], [ %33, %32 ]
  %.065 = phi <4 x float> [ %23, %11 ], [ %39, %32 ]
  %.064 = phi <4 x float> [ %27, %11 ], [ %44, %32 ]
  %.063 = phi <4 x float> [ %31, %11 ], [ %49, %32 ]
  %33 = getelementptr inbounds nuw i8, ptr %.066, i64 16
  %34 = getelementptr inbounds nuw i8, ptr %.068, i64 48
  tail call void asm sideeffect "", "r,~{dirflag},~{fpsr},~{flags}"(ptr nonnull %34) #24, !srcloc !583
  %35 = load <4 x float>, ptr %33, align 1, !tbaa !4
  %36 = shufflevector <4 x float> %35, <4 x float> poison, <4 x i32> <i32 0, i32 0, i32 0, i32 1>
  %37 = load <4 x float>, ptr %34, align 1, !tbaa !4
  %38 = fmul <4 x float> %37, %36
  %39 = fadd <4 x float> %.065, %38
  %40 = shufflevector <4 x float> %35, <4 x float> poison, <4 x i32> <i32 1, i32 1, i32 2, i32 2>
  %41 = getelementptr inbounds nuw i8, ptr %.068, i64 64
  %42 = load <4 x float>, ptr %41, align 1, !tbaa !4
  %43 = fmul <4 x float> %40, %42
  %44 = fadd <4 x float> %.064, %43
  %45 = shufflevector <4 x float> %35, <4 x float> poison, <4 x i32> <i32 2, i32 3, i32 3, i32 3>
  %46 = getelementptr inbounds nuw i8, ptr %.068, i64 80
  %47 = load <4 x float>, ptr %46, align 1, !tbaa !4
  %48 = fmul <4 x float> %45, %47
  %49 = fadd <4 x float> %.063, %48
  %50 = add nsw i32 %.067, -1
  %51 = icmp sgt i32 %.067, 1
  br i1 %51, label %32, label %52, !llvm.loop !584

52:                                               ; preds = %32
  %53 = shufflevector <4 x float> %39, <4 x float> %44, <4 x i32> <i32 3, i32 4, i32 5, i32 2>
  %54 = shufflevector <4 x float> %44, <4 x float> %49, <4 x i32> <i32 2, i32 3, i32 4, i32 5>
  %55 = shufflevector <4 x float> %49, <4 x float> poison, <4 x i32> <i32 1, i32 2, i32 3, i32 0>
  %56 = fadd <4 x float> %39, %54
  %57 = fadd <4 x float> %53, %55
  %58 = fadd <4 x float> %57, %56
  %59 = getelementptr inbounds nuw i8, ptr %.069, i64 12
  %60 = icmp ult ptr %59, %9
  br i1 %60, label %65, label %.thread

.thread:                                          ; preds = %52
  %61 = bitcast <4 x float> %58 to <2 x i64>
  %62 = extractelement <2 x i64> %61, i64 0
  store i64 %62, ptr %.069, align 1, !tbaa !4
  %63 = getelementptr inbounds nuw i8, ptr %.069, i64 8
  %64 = extractelement <4 x float> %58, i64 2
  store float %64, ptr %63, align 1, !tbaa !4
  ret void

65:                                               ; preds = %52
  %66 = getelementptr inbounds nuw i8, ptr %.070, i64 8
  %67 = getelementptr inbounds float, ptr %.071, i64 %10
  store <4 x float> %58, ptr %.069, align 1, !tbaa !4
  br label %11
}